Certificate:
    Data:
        Version: 3 (0x2)
        Serial Number: 4097 (0x1001)
        Signature Algorithm: md5WithRSAEncryption
        Issuer: C=US, ST=Utah, L=SLC, O=UofU, OU=MSD, CN=6014/emailAddress=delisaac@gmail.com
        Validity
            Not Before: Mar 16 01:05:42 2025 GMT
            Not After : Mar 16 01:05:42 2026 GMT
        Subject: C=US, ST=Utah, O=UofU, OU=msd, CN=TLSlite/emailAddress=delisaac@gmail.com
        Subject Public Key Info:
            Public Key Algorithm: rsaEncryption
                Public-Key: (4096 bit)
                Modulus:
                    00:e1:6a:4b:91:6e:30:a2:aa:f5:b4:10:eb:6b:3e:
                    c0:40:1d:c2:27:5e:9d:22:eb:29:66:78:26:b9:65:
                    46:b8:bb:d2:ea:e6:a5:8c:9a:18:24:f5:b9:d5:86:
                    2a:bc:e6:66:6a:ad:2c:eb:2a:9d:55:46:97:11:d6:
                    3d:32:cb:f9:78:dc:21:81:d6:7e:be:af:d8:f5:77:
                    8a:1f:d0:4c:f7:1a:1a:6c:b4:67:e2:dd:92:c1:a0:
                    25:24:89:a8:12:ed:7f:c4:d3:88:88:8e:e0:f3:af:
                    e1:15:5d:10:4c:e7:32:b4:00:c6:07:e2:46:d8:0b:
                    05:4f:26:0b:6a:bb:c6:12:ae:42:b7:02:22:33:4c:
                    61:de:3d:cc:11:0c:b7:0c:a1:f8:c9:56:1a:c5:1e:
                    5f:d7:06:95:9a:fc:1b:96:1c:21:75:d2:e8:17:b8:
                    b4:c9:15:01:86:0e:91:7d:70:3e:2f:4a:a7:ae:f6:
                    e9:8a:ec:18:e0:db:02:ea:44:d6:e8:04:3d:00:78:
                    d5:38:c9:8d:30:94:cb:54:03:0c:df:97:82:28:1e:
                    9a:46:87:7f:0f:c5:69:b5:6e:cb:00:40:15:86:57:
                    59:2b:7f:6d:5c:2e:f1:7a:cc:48:11:07:a6:26:87:
                    7b:0d:0a:c8:4c:52:04:fe:bd:fa:c5:56:88:6e:94:
                    0a:5f:52:77:be:d1:18:ed:99:d8:99:18:6c:b8:9e:
                    42:0d:3f:de:23:eb:39:1b:c2:17:c0:39:42:60:17:
                    71:26:46:01:0c:4a:e3:ce:81:65:0e:44:0f:39:f4:
                    df:3c:02:b9:ff:a1:34:23:5f:a5:c0:70:55:c0:c2:
                    81:12:87:69:4c:7c:08:91:5e:63:94:c9:c5:ac:a1:
                    2f:d7:d2:91:07:e4:05:42:c1:79:b8:c4:0c:fb:aa:
                    10:c7:09:5d:dd:15:c0:13:f5:c1:1b:4b:d4:39:1a:
                    0d:bc:12:2e:da:d3:f4:aa:86:2c:a7:1d:ad:11:26:
                    9d:6d:6c:c7:17:da:96:16:9b:ac:0e:bc:34:89:aa:
                    df:b4:5b:db:ed:04:80:10:5a:73:f5:0b:82:07:24:
                    70:52:a9:cb:a2:83:0a:be:30:7a:61:ea:8c:42:2e:
                    f1:da:08:eb:7d:c8:da:8f:4b:b8:6c:8d:2f:b6:95:
                    d2:c3:57:1f:6d:52:fa:cd:14:f9:5f:43:bf:30:75:
                    c6:de:55:12:1e:11:7b:ed:0b:22:22:93:90:da:1f:
                    12:15:ff:c4:c8:34:bc:d6:ab:fd:53:63:05:52:d0:
                    7a:93:1c:4f:5b:d4:a8:de:be:78:20:98:7f:66:94:
                    8f:03:84:e9:5c:a7:31:14:c9:1b:b3:aa:b8:2f:9f:
                    23:b0:a1
                Exponent: 65537 (0x10001)
        X509v3 extensions:
            X509v3 Basic Constraints: 
                CA:FALSE
            Netscape Comment: 
                OpenSSL Generated Certificate
            X509v3 Subject Key Identifier: 
                89:2E:56:A4:02:5B:75:72:D4:86:15:C8:CF:B3:47:D1:89:4F:F1:9D
            X509v3 Authority Key Identifier: 
                keyid:17:9B:F8:4C:EF:3E:9E:F1:DF:6C:FD:A9:C1:14:05:AC:BC:12:C2:08
                DirName:/C=US/ST=Utah/L=SLC/O=UofU/OU=MSD/CN=6014/emailAddress=delisaac@gmail.com
                serial:67:94:12:F7:BF:A0:18:F5:00:47:74:FD:C3:15:93:44:94:EE:4D:0C
    Signature Algorithm: md5WithRSAEncryption
    Signature Value:
        2b:ce:08:74:7c:fc:0c:6b:a2:71:bb:da:e9:f6:bb:e9:17:91:
        00:91:7d:eb:2d:f7:9f:bd:a4:57:ec:7b:9d:ea:48:90:c1:79:
        a8:e6:46:b0:68:e7:40:ec:0c:53:de:68:a6:42:4d:3e:70:da:
        7f:92:b1:6d:e4:2f:ab:99:17:6b:74:cf:4f:b0:4d:61:eb:6b:
        06:0c:20:d9:95:a6:12:8a:55:3b:6b:92:5c:d8:95:fc:1f:84:
        e8:4b:cf:9e:45:1d:09:f7:03:b5:52:a3:51:cb:9e:34:38:9b:
        99:51:8b:b5:9e:38:26:d6:45:cb:89:e2:e5:af:39:68:30:29:
        b4:71:cd:d9:5a:af:5e:90:33:6d:e4:fc:05:04:f0:7e:05:a9:
        43:2f:7b:a0:80:9b:d8:bf:76:07:4b:94:fc:f4:15:cd:ac:9d:
        e2:af:19:0e:52:4f:7c:df:7d:f3:7d:66:67:f3:12:e3:e6:12:
        52:d0:eb:33:3f:21:33:25:eb:51:ec:1f:7d:84:82:ef:a8:21:
        24:ab:ad:86:b8:99:cb:5d:63:5e:4a:0f:08:32:43:38:a8:43:
        23:d7:d1:9f:1d:3f:4f:14:8d:c0:f4:fa:82:5d:25:25:d5:ef:
        e5:41:d5:6f:93:6e:61:34:5a:93:06:10:34:35:5a:a7:9c:71:
        5c:48:99:6c:7f:59:5d:f4:4a:ca:c4:14:ae:20:41:29:31:cf:
        e8:5b:ba:2b:82:c1:64:15:2c:ad:18:bd:6a:56:c0:df:5a:2d:
        e0:bb:be:34:59:d9:eb:28:59:31:6f:95:74:f9:dc:81:e7:f3:
        29:99:e2:f0:fc:5c:71:95:af:d2:b2:4f:6d:cb:ea:ec:5a:d2:
        55:5a:4c:dc:5f:ed:af:bb:89:bc:69:1f:0b:04:8e:ca:9e:b4:
        86:89:eb:ad:1d:b6:ef:dc:bf:3e:ca:bb:ad:3f:2d:be:9b:bb:
        fa:52:21:15:32:3e:85:5d:ca:c1:35:59:fb:95:ad:e2:cf:89:
        e9:9a:86:c3:96:12:12:92:b5:f2:67:7e:7a:e0:f5:7e:e7:e0:
        8e:53:44:ad:0a:0f:8a:d6:cd:53:53:ad:2f:f6:bc:ec:87:34:
        e9:3b:f6:29:bb:b6:74:a6:7f:7e:4f:3c:b2:ee:94:b6:e2:39:
        74:71:83:57:8b:b9:31:e6:5d:43:b5:41:d0:b0:73:b5:e1:de:
        24:59:76:0d:16:d4:b0:12:14:1c:38:d3:79:95:38:ba:9d:01:
        9a:42:6f:b0:f8:5a:91:63:3c:df:48:4a:2e:e9:db:46:a4:13:
        96:77:3d:41:00:cc:56:94:df:33:c4:2a:42:37:23:19:2e:e3:
        d5:14:78:b7:bc:88:1b:dc
-----BEGIN CERTIFICATE-----
MIIGejCCBGKgAwIBAgICEAEwDQYJKoZIhvcNAQEEBQAweTELMAkGA1UEBhMCVVMx
DTALBgNVBAgMBFV0YWgxDDAKBgNVBAcMA1NMQzENMAsGA1UECgwEVW9mVTEMMAoG
A1UECwwDTVNEMQ0wCwYDVQQDDAQ2MDE0MSEwHwYJKoZIhvcNAQkBFhJkZWxpc2Fh
Y0BnbWFpbC5jb20wHhcNMjUwMzE2MDEwNTQyWhcNMjYwMzE2MDEwNTQyWjBuMQsw
CQYDVQQGEwJVUzENMAsGA1UECAwEVXRhaDENMAsGA1UECgwEVW9mVTEMMAoGA1UE
CwwDbXNkMRAwDgYDVQQDDAdUTFNsaXRlMSEwHwYJKoZIhvcNAQkBFhJkZWxpc2Fh
Y0BnbWFpbC5jb20wggIiMA0GCSqGSIb3DQEBAQUAA4ICDwAwggIKAoICAQDhakuR
bjCiqvW0EOtrPsBAHcInXp0i6ylmeCa5ZUa4u9Lq5qWMmhgk9bnVhiq85mZqrSzr
Kp1VRpcR1j0yy/l43CGB1n6+r9j1d4of0Ez3GhpstGfi3ZLBoCUkiagS7X/E04iI
juDzr+EVXRBM5zK0AMYH4kbYCwVPJgtqu8YSrkK3AiIzTGHePcwRDLcMofjJVhrF
Hl/XBpWa/BuWHCF10ugXuLTJFQGGDpF9cD4vSqeu9umK7Bjg2wLqRNboBD0AeNU4
yY0wlMtUAwzfl4IoHppGh38PxWm1bssAQBWGV1krf21cLvF6zEgRB6Ymh3sNCshM
UgT+vfrFVohulApfUne+0RjtmdiZGGy4nkINP94j6zkbwhfAOUJgF3EmRgEMSuPO
gWUORA859N88Arn/oTQjX6XAcFXAwoESh2lMfAiRXmOUycWsoS/X0pEH5AVCwXm4
xAz7qhDHCV3dFcAT9cEbS9Q5Gg28Ei7a0/SqhiynHa0RJp1tbMcX2pYWm6wOvDSJ
qt+0W9vtBIAQWnP1C4IHJHBSqcuigwq+MHph6oxCLvHaCOt9yNqPS7hsjS+2ldLD
Vx9tUvrNFPlfQ78wdcbeVRIeEXvtCyIik5DaHxIV/8TINLzWq/1TYwVS0HqTHE9b
1KjevnggmH9mlI8DhOlcpzEUyRuzqrgvnyOwoQIDAQABo4IBFTCCAREwCQYDVR0T
BAIwADAsBglghkgBhvhCAQ0EHxYdT3BlblNTTCBHZW5lcmF0ZWQgQ2VydGlmaWNh
dGUwHQYDVR0OBBYEFIkuVqQCW3Vy1IYVyM+zR9GJT/GdMIG2BgNVHSMEga4wgauA
FBeb+EzvPp7x32z9qcEUBay8EsIIoX2kezB5MQswCQYDVQQGEwJVUzENMAsGA1UE
CAwEVXRhaDEMMAoGA1UEBwwDU0xDMQ0wCwYDVQQKDARVb2ZVMQwwCgYDVQQLDANN
U0QxDTALBgNVBAMMBDYwMTQxITAfBgkqhkiG9w0BCQEWEmRlbGlzYWFjQGdtYWls
LmNvbYIUZ5QS97+gGPUAR3T9wxWTRJTuTQwwDQYJKoZIhvcNAQEEBQADggIBACvO
CHR8/AxronG72un2u+kXkQCRfest95+9pFfse53qSJDBeajmRrBo50DsDFPeaKZC
TT5w2n+SsW3kL6uZF2t0z0+wTWHrawYMINmVphKKVTtrklzYlfwfhOhLz55FHQn3
A7VSo1HLnjQ4m5lRi7WeOCbWRcuJ4uWvOWgwKbRxzdlar16QM23k/AUE8H4FqUMv
e6CAm9i/dgdLlPz0Fc2sneKvGQ5ST3zfffN9ZmfzEuPmElLQ6zM/ITMl61HsH32E
gu+oISSrrYa4mctdY15KDwgyQzioQyPX0Z8dP08UjcD0+oJdJSXV7+VB1W+TbmE0
WpMGEDQ1WqeccVxImWx/WV30SsrEFK4gQSkxz+hbuiuCwWQVLK0YvWpWwN9aLeC7
vjRZ2esoWTFvlXT53IHn8ymZ4vD8XHGVr9KyT23L6uxa0lVaTNxf7a+7ibxpHwsE
jsqetIaJ660dtu/cvz7Ku60/Lb6bu/pSIRUyPoVdysE1WfuVreLPiemahsOWEhKS
tfJnfnrg9X7n4I5TRK0KD4rWzVNTrS/2vOyHNOk79im7tnSmf35PPLLulLbiOXRx
g1eLuTHmXUO1QdCwc7Xh3iRZdg0W1LASFBw403mVOLqdAZpCb7D4WpFjPN9ISi7p
20akE5Z3PUEAzFaU3zPEKkI3Ixku49UUeLe8iBvc
-----END CERTIFICATE-----
