Certificate:
    Data:
        Version: 3 (0x2)
        Serial Number: 4096 (0x1000)
        Signature Algorithm: md5WithRSAEncryption
        Issuer: C=US, ST=Utah, L=SLC, O=UofU, OU=MSD, CN=6014/emailAddress=delisaac@gmail.com
        Validity
            Not Before: Mar 16 01:01:56 2025 GMT
            Not After : Mar 16 01:01:56 2026 GMT
        Subject: C=US, ST=Utah, O=UofU, OU=msd, CN=TSLlite/emailAddress=delisaac@gmail.com
        Subject Public Key Info:
            Public Key Algorithm: rsaEncryption
                Public-Key: (4096 bit)
                Modulus:
                    00:aa:55:cf:c6:26:95:46:63:da:ba:05:70:ac:a5:
                    fc:93:fc:fb:cf:d5:05:b9:ea:48:7c:56:c5:f2:63:
                    15:90:7e:18:39:b5:4f:77:e4:02:52:79:5a:13:0c:
                    d3:72:b9:2d:b9:92:a1:04:1e:e6:7a:be:f6:2f:e7:
                    f4:65:58:fd:d2:53:8a:39:9c:be:13:cb:46:ed:1c:
                    2e:88:d5:65:65:34:a9:e8:03:e7:d6:67:82:63:09:
                    d6:9c:bb:71:93:de:bc:e0:90:9c:99:be:83:4c:da:
                    eb:9d:5b:83:ab:52:05:21:32:2c:4d:7c:aa:8a:62:
                    7f:26:74:bf:ac:36:c3:1c:ac:35:42:66:f7:1a:86:
                    51:72:7d:dc:8b:6b:6a:b3:a4:9b:39:82:fa:48:bd:
                    ea:bf:04:6e:3b:2b:2e:0e:29:77:22:c6:61:b0:a1:
                    20:70:df:3e:b1:a7:d8:b6:a7:90:d1:17:74:8b:7b:
                    89:7b:6e:d8:67:87:bd:d3:d6:93:cb:67:cb:83:69:
                    51:98:32:90:17:aa:b8:5e:16:39:b7:12:b3:8a:10:
                    3a:36:11:10:24:4e:0d:41:11:ce:1a:6f:ac:c0:41:
                    af:b4:a9:bc:05:22:35:e3:b0:fd:60:36:2f:6b:fe:
                    67:88:bb:d8:99:e2:61:0c:c2:b6:b5:f3:bc:3a:c4:
                    3c:a9:7e:4b:b1:3b:48:73:84:b9:81:29:82:1b:1b:
                    d4:72:5f:eb:fd:99:a5:7c:62:22:8d:ba:4f:9d:20:
                    98:01:6d:1f:31:bd:fb:c5:e0:7e:ed:b2:a2:44:dd:
                    7c:92:03:b5:1d:b6:c2:67:a5:ea:a0:f0:93:49:b6:
                    cd:04:4b:30:9d:b9:ce:3b:20:fd:98:4f:be:e6:07:
                    03:95:cd:9a:d4:9b:0c:f8:85:92:6d:b0:33:10:3e:
                    95:50:fc:f8:16:26:39:19:4b:ee:d4:17:f4:8d:03:
                    e2:c5:e6:9c:a4:af:4e:ab:70:32:f8:32:63:28:4a:
                    e1:c0:90:f8:c3:a0:80:05:43:fe:c6:b0:17:34:f5:
                    48:ab:9d:9b:3a:48:d9:07:b3:bf:2e:56:39:1d:b0:
                    75:a8:2d:63:16:a8:6e:ce:3e:05:31:24:76:13:62:
                    49:f2:74:d3:64:2c:bb:f9:83:26:24:6f:c2:1a:e5:
                    c3:07:d6:f0:b8:16:fc:cd:2d:e7:c7:76:01:06:b7:
                    3c:8e:76:c9:5e:df:f7:20:12:7b:32:41:e8:7c:66:
                    a7:cd:cc:25:10:81:32:2c:f3:ef:d2:ea:98:14:a9:
                    40:92:91:eb:9f:7f:ea:6d:28:6f:2b:89:a8:55:8a:
                    9b:39:54:83:43:ab:77:bd:c3:c1:82:5d:54:72:04:
                    aa:55:6f
                Exponent: 65537 (0x10001)
        X509v3 extensions:
            X509v3 Basic Constraints: 
                CA:FALSE
            Netscape Comment: 
                OpenSSL Generated Certificate
            X509v3 Subject Key Identifier: 
                F4:03:6B:A9:F8:03:56:EF:5F:A5:DB:88:84:27:A9:B1:8D:13:65:10
            X509v3 Authority Key Identifier: 
                keyid:17:9B:F8:4C:EF:3E:9E:F1:DF:6C:FD:A9:C1:14:05:AC:BC:12:C2:08
                DirName:/C=US/ST=Utah/L=SLC/O=UofU/OU=MSD/CN=6014/emailAddress=delisaac@gmail.com
                serial:67:94:12:F7:BF:A0:18:F5:00:47:74:FD:C3:15:93:44:94:EE:4D:0C
    Signature Algorithm: md5WithRSAEncryption
    Signature Value:
        2b:a4:9e:26:da:67:bd:45:fb:37:87:02:4d:c3:b7:e6:dd:de:
        4d:6c:84:f2:52:59:37:f8:d9:22:d0:f4:fd:31:98:0a:f2:b2:
        b7:03:21:34:03:26:b9:2f:74:c2:44:de:32:7d:17:b2:58:79:
        da:92:6c:8d:64:d4:73:23:b0:0c:25:3b:c3:7b:4c:2a:9d:ae:
        fb:52:35:7b:72:e4:4e:ca:f9:a2:2e:43:bf:2f:e0:d1:ff:b4:
        d6:a5:05:4e:a3:db:bb:3c:fe:ea:6e:0e:bc:78:9f:99:36:70:
        1c:62:2a:e6:c0:db:0d:eb:c7:45:b5:bc:1e:cb:40:8c:e9:c3:
        f3:0f:8c:9f:3c:0b:56:9c:96:1e:46:51:8f:4b:93:11:53:2b:
        d7:f4:38:55:ab:8c:fe:ad:da:4e:c2:3f:99:27:87:a9:a1:6b:
        bc:42:b7:68:af:79:66:b0:da:6f:9e:fe:4d:df:38:5f:5f:78:
        43:84:ec:f2:47:3c:84:b2:6e:af:c7:89:de:70:50:36:13:3b:
        5b:b8:59:bb:59:82:ba:f7:11:84:f4:5d:31:68:49:85:2e:17:
        d2:c9:5d:da:3b:5a:59:06:14:11:3b:d7:2a:78:c9:67:84:07:
        14:07:77:4b:b6:35:6b:ee:97:34:de:43:27:6c:10:0a:36:d7:
        58:9f:d7:05:0b:5d:31:b0:54:01:70:86:ae:39:fe:c2:f9:83:
        95:52:b7:4d:7e:1f:66:b0:70:57:ae:23:21:9f:f1:26:0d:44:
        74:54:83:3d:34:6c:a9:c3:67:40:48:7f:58:f4:ed:df:9e:73:
        ad:7c:d8:29:7c:e5:03:dc:06:7b:b1:f2:28:04:3a:2a:d1:80:
        00:a9:4a:c5:bc:c6:91:f0:87:3e:48:8f:43:4b:e2:a9:43:56:
        38:98:3d:0f:4e:08:98:81:83:e8:ea:4e:1c:08:27:fd:2a:4c:
        46:32:89:48:9c:12:80:02:a2:a0:1f:c1:9d:de:07:74:13:a7:
        1c:b6:a3:c9:32:b7:d9:e5:f7:8c:1f:1e:e9:1c:2c:4f:44:a3:
        ef:0d:47:97:ce:ce:d1:20:34:93:1c:81:b6:27:54:00:26:a6:
        c6:d5:c4:b5:a1:83:40:06:31:ce:e4:3c:8f:24:c2:5e:1a:63:
        02:75:58:b4:6f:fa:5d:7b:ba:1e:ba:7e:25:88:f7:8e:35:0e:
        cf:0f:17:21:fb:a6:30:56:d9:6f:f3:d5:2b:97:9f:b7:b7:b2:
        d1:03:9b:98:85:96:bf:9a:64:6b:bb:ff:7d:a4:b1:3a:41:b0:
        5d:58:41:98:67:df:0e:8d:c3:a6:af:83:f4:dd:74:a8:a0:5a:
        82:dc:d1:05:58:c9:05:ad
-----BEGIN CERTIFICATE-----
MIIGejCCBGKgAwIBAgICEAAwDQYJKoZIhvcNAQEEBQAweTELMAkGA1UEBhMCVVMx
DTALBgNVBAgMBFV0YWgxDDAKBgNVBAcMA1NMQzENMAsGA1UECgwEVW9mVTEMMAoG
A1UECwwDTVNEMQ0wCwYDVQQDDAQ2MDE0MSEwHwYJKoZIhvcNAQkBFhJkZWxpc2Fh
Y0BnbWFpbC5jb20wHhcNMjUwMzE2MDEwMTU2WhcNMjYwMzE2MDEwMTU2WjBuMQsw
CQYDVQQGEwJVUzENMAsGA1UECAwEVXRhaDENMAsGA1UECgwEVW9mVTEMMAoGA1UE
CwwDbXNkMRAwDgYDVQQDDAdUU0xsaXRlMSEwHwYJKoZIhvcNAQkBFhJkZWxpc2Fh
Y0BnbWFpbC5jb20wggIiMA0GCSqGSIb3DQEBAQUAA4ICDwAwggIKAoICAQCqVc/G
JpVGY9q6BXCspfyT/PvP1QW56kh8VsXyYxWQfhg5tU935AJSeVoTDNNyuS25kqEE
HuZ6vvYv5/RlWP3SU4o5nL4Ty0btHC6I1WVlNKnoA+fWZ4JjCdacu3GT3rzgkJyZ
voNM2uudW4OrUgUhMixNfKqKYn8mdL+sNsMcrDVCZvcahlFyfdyLa2qzpJs5gvpI
veq/BG47Ky4OKXcixmGwoSBw3z6xp9i2p5DRF3SLe4l7bthnh73T1pPLZ8uDaVGY
MpAXqrheFjm3ErOKEDo2ERAkTg1BEc4ab6zAQa+0qbwFIjXjsP1gNi9r/meIu9iZ
4mEMwra187w6xDypfkuxO0hzhLmBKYIbG9RyX+v9maV8YiKNuk+dIJgBbR8xvfvF
4H7tsqJE3XySA7UdtsJnpeqg8JNJts0ESzCduc47IP2YT77mBwOVzZrUmwz4hZJt
sDMQPpVQ/PgWJjkZS+7UF/SNA+LF5pykr06rcDL4MmMoSuHAkPjDoIAFQ/7GsBc0
9UirnZs6SNkHs78uVjkdsHWoLWMWqG7OPgUxJHYTYknydNNkLLv5gyYkb8Ia5cMH
1vC4FvzNLefHdgEGtzyOdsle3/cgEnsyQeh8ZqfNzCUQgTIs8+/S6pgUqUCSkeuf
f+ptKG8riahVips5VINDq3e9w8GCXVRyBKpVbwIDAQABo4IBFTCCAREwCQYDVR0T
BAIwADAsBglghkgBhvhCAQ0EHxYdT3BlblNTTCBHZW5lcmF0ZWQgQ2VydGlmaWNh
dGUwHQYDVR0OBBYEFPQDa6n4A1bvX6XbiIQnqbGNE2UQMIG2BgNVHSMEga4wgauA
FBeb+EzvPp7x32z9qcEUBay8EsIIoX2kezB5MQswCQYDVQQGEwJVUzENMAsGA1UE
CAwEVXRhaDEMMAoGA1UEBwwDU0xDMQ0wCwYDVQQKDARVb2ZVMQwwCgYDVQQLDANN
U0QxDTALBgNVBAMMBDYwMTQxITAfBgkqhkiG9w0BCQEWEmRlbGlzYWFjQGdtYWls
LmNvbYIUZ5QS97+gGPUAR3T9wxWTRJTuTQwwDQYJKoZIhvcNAQEEBQADggIBACuk
nibaZ71F+zeHAk3Dt+bd3k1shPJSWTf42SLQ9P0xmArysrcDITQDJrkvdMJE3jJ9
F7JYedqSbI1k1HMjsAwlO8N7TCqdrvtSNXty5E7K+aIuQ78v4NH/tNalBU6j27s8
/upuDrx4n5k2cBxiKubA2w3rx0W1vB7LQIzpw/MPjJ88C1aclh5GUY9LkxFTK9f0
OFWrjP6t2k7CP5knh6mha7xCt2iveWaw2m+e/k3fOF9feEOE7PJHPISybq/Hid5w
UDYTO1u4WbtZgrr3EYT0XTFoSYUuF9LJXdo7WlkGFBE71yp4yWeEBxQHd0u2NWvu
lzTeQydsEAo211if1wULXTGwVAFwhq45/sL5g5VSt01+H2awcFeuIyGf8SYNRHRU
gz00bKnDZ0BIf1j07d+ec6182Cl85QPcBnux8igEOirRgACpSsW8xpHwhz5Ij0NL
4qlDVjiYPQ9OCJiBg+jqThwIJ/0qTEYyiUicEoACoqAfwZ3eB3QTpxy2o8kyt9nl
94wfHukcLE9Eo+8NR5fOztEgNJMcgbYnVAAmpsbVxLWhg0AGMc7kPI8kwl4aYwJ1
WLRv+l17uh66fiWI9441Ds8PFyH7pjBW2W/z1SuXn7e3stEDm5iFlr+aZGu7/32k
sTpBsF1YQZhn3w6Nw6avg/TddKigWoLc0QVYyQWt
-----END CERTIFICATE-----
